; Function Attrs: mustprogress nounwind uwtable
define noundef zeroext i1 @_ZNK7glslang16HlslParseContext13shouldFlattenERKNS_5TTypeENS_17TStorageQualifierEb(ptr nocapture noundef nonnull readonly align 8 dereferenceable(2489) %0, ptr noundef nonnull align 8 dereferenceable(152) %1, i32 noundef %2, i1 noundef zeroext %3) local_unnamed_addr #0 align 2 {
  switch i32 %2, label %30 [
    i32 3, label %5
    i32 4, label %5
    i32 5, label %10
  ]

5:                                                ; preds = %4, %4
  %6 = load ptr, ptr %1, align 8
  %7 = getelementptr inbounds i8, ptr %6, i64 296
  %8 = load ptr, ptr %7, align 8
  %9 = tail call noundef zeroext i1 %8(ptr noundef nonnull align 8 dereferenceable(152) %1) #24
  br i1 %9, label %30, label %.sink.split

10:                                               ; preds = %4
  %11 = load ptr, ptr %1, align 8
  %12 = getelementptr inbounds i8, ptr %11, i64 232
  %13 = load ptr, ptr %12, align 8
  %14 = tail call noundef zeroext i1 %13(ptr noundef nonnull align 8 dereferenceable(152) %1) #24
  br i1 %14, label %15, label %21

15:                                               ; preds = %10
  %16 = getelementptr inbounds i8, ptr %0, i64 56
  %17 = load ptr, ptr %16, align 8
  %18 = getelementptr inbounds i8, ptr %17, i64 1234
  %19 = load i8, ptr %18, align 2
  %20 = trunc i8 %19 to i1
  %brmerge.demorgan = and i1 %20, %3
  br i1 %brmerge.demorgan, label %30, label %21

21:                                               ; preds = %15, %10
  %22 = load ptr, ptr %1, align 8
  %23 = getelementptr inbounds i8, ptr %22, i64 296
  %24 = load ptr, ptr %23, align 8
  %25 = tail call noundef zeroext i1 %24(ptr noundef nonnull align 8 dereferenceable(152) %1) #24
  br i1 %25, label %.sink.split, label %30

.sink.split:                                      ; preds = %21, %5
  %.sink10 = phi i64 [ 232, %5 ], [ 432, %21 ]
  %26 = load ptr, ptr %1, align 8
  %27 = getelementptr inbounds i8, ptr %26, i64 %.sink10
  %28 = load ptr, ptr %27, align 8
  %29 = tail call noundef zeroext i1 %28(ptr noundef nonnull align 8 dereferenceable(152) %1) #24
  br label %30

30:                                               ; preds = %.sink.split, %4, %21, %15, %5
  %.0 = phi i1 [ true, %5 ], [ false, %21 ], [ true, %15 ], [ false, %4 ], [ %29, %.sink.split ]
  ret i1 %.0
}